; Function Attrs: nounwind uwtable
define ptr @l_Array_forIn_x27Unsafe_loop___at_Lean_Widget_goalToInteractive___spec__3___boxed(ptr noundef readonly captures(none) %0) local_unnamed_addr #1 {
  %2 = load ptr, ptr %0, align 8, !tbaa !4
  %3 = getelementptr inbounds nuw i8, ptr %0, i64 8
  %4 = load ptr, ptr %3, align 8, !tbaa !4
  %5 = getelementptr inbounds nuw i8, ptr %0, i64 16
  %6 = load ptr, ptr %5, align 8, !tbaa !4
  %7 = getelementptr inbounds nuw i8, ptr %0, i64 24
  %8 = load ptr, ptr %7, align 8, !tbaa !4
  %9 = getelementptr inbounds nuw i8, ptr %0, i64 32
  %10 = load ptr, ptr %9, align 8, !tbaa !4
  %11 = getelementptr inbounds nuw i8, ptr %0, i64 40
  %12 = load ptr, ptr %11, align 8, !tbaa !4
  %13 = getelementptr inbounds nuw i8, ptr %0, i64 48
  %14 = load ptr, ptr %13, align 8, !tbaa !4
  %15 = getelementptr inbounds nuw i8, ptr %0, i64 56
  %16 = load ptr, ptr %15, align 8, !tbaa !4
  %17 = getelementptr inbounds nuw i8, ptr %0, i64 64
  %18 = load ptr, ptr %17, align 8, !tbaa !4
  %19 = getelementptr inbounds nuw i8, ptr %0, i64 72
  %20 = load ptr, ptr %19, align 8, !tbaa !4
  %21 = getelementptr inbounds nuw i8, ptr %0, i64 80
  %22 = load ptr, ptr %21, align 8, !tbaa !4
  %23 = getelementptr inbounds nuw i8, ptr %0, i64 88
  %24 = load ptr, ptr %23, align 8, !tbaa !4
  %25 = getelementptr inbounds nuw i8, ptr %0, i64 96
  %26 = load ptr, ptr %25, align 8, !tbaa !4
  %27 = getelementptr inbounds nuw i8, ptr %0, i64 104
  %28 = load ptr, ptr %27, align 8, !tbaa !4
  %29 = getelementptr inbounds nuw i8, ptr %0, i64 112
  %30 = load ptr, ptr %29, align 8, !tbaa !4
  %31 = getelementptr inbounds nuw i8, ptr %0, i64 120
  %32 = load ptr, ptr %31, align 8, !tbaa !4
  %33 = getelementptr inbounds nuw i8, ptr %0, i64 128
  %34 = load ptr, ptr %33, align 8, !tbaa !4
  %35 = getelementptr inbounds nuw i8, ptr %0, i64 136
  %36 = load ptr, ptr %35, align 8, !tbaa !4
  %37 = getelementptr inbounds nuw i8, ptr %0, i64 144
  %38 = load ptr, ptr %37, align 8, !tbaa !4
  %39 = ptrtoint ptr %2 to i64
  %40 = lshr i64 %39, 1
  %41 = trunc i64 %40 to i8
  %42 = and i64 %39, 1
  %.not = icmp eq i64 %42, 0
  br i1 %.not, label %43, label %lean_dec.exit59

43:                                               ; preds = %1
  %44 = load i32, ptr %2, align 4, !tbaa !8
  %45 = icmp sgt i32 %44, 1
  br i1 %45, label %46, label %48, !prof !11

46:                                               ; preds = %43
  %47 = add nsw i32 %44, -1
  store i32 %47, ptr %2, align 4, !tbaa !8
  br label %lean_dec.exit59

48:                                               ; preds = %43
  %.not.i = icmp eq i32 %44, 0
  br i1 %.not.i, label %lean_dec.exit59, label %49

49:                                               ; preds = %48
  tail call void @lean_dec_ref_cold(ptr noundef nonnull %2) #6
  br label %lean_dec.exit59

lean_dec.exit59:                                  ; preds = %49, %48, %46, %1
  %50 = ptrtoint ptr %4 to i64
  %51 = lshr i64 %50, 1
  %52 = trunc i64 %51 to i8
  %53 = and i64 %50, 1
  %.not77 = icmp eq i64 %53, 0
  br i1 %.not77, label %54, label %lean_dec.exit58

54:                                               ; preds = %lean_dec.exit59
  %55 = load i32, ptr %4, align 4, !tbaa !8
  %56 = icmp sgt i32 %55, 1
  br i1 %56, label %57, label %59, !prof !11

57:                                               ; preds = %54
  %58 = add nsw i32 %55, -1
  store i32 %58, ptr %4, align 4, !tbaa !8
  br label %lean_dec.exit58

59:                                               ; preds = %54
  %.not.i60 = icmp eq i32 %55, 0
  br i1 %.not.i60, label %lean_dec.exit58, label %60

60:                                               ; preds = %59
  tail call void @lean_dec_ref_cold(ptr noundef nonnull %4) #6
  br label %lean_dec.exit58

lean_dec.exit58:                                  ; preds = %60, %59, %57, %lean_dec.exit59
  %61 = ptrtoint ptr %6 to i64
  %62 = lshr i64 %61, 1
  %63 = trunc i64 %62 to i8
  %64 = and i64 %61, 1
  %.not78 = icmp eq i64 %64, 0
  br i1 %.not78, label %65, label %lean_dec.exit57

65:                                               ; preds = %lean_dec.exit58
  %66 = load i32, ptr %6, align 4, !tbaa !8
  %67 = icmp sgt i32 %66, 1
  br i1 %67, label %68, label %70, !prof !11

68:                                               ; preds = %65
  %69 = add nsw i32 %66, -1
  store i32 %69, ptr %6, align 4, !tbaa !8
  br label %lean_dec.exit57

70:                                               ; preds = %65
  %.not.i62 = icmp eq i32 %66, 0
  br i1 %.not.i62, label %lean_dec.exit57, label %71

71:                                               ; preds = %70
  tail call void @lean_dec_ref_cold(ptr noundef nonnull %6) #6
  br label %lean_dec.exit57

lean_dec.exit57:                                  ; preds = %71, %70, %68, %lean_dec.exit58
  %72 = getelementptr i8, ptr %24, i64 8
  %.val76 = load i64, ptr %72, align 8, !tbaa !12
  %73 = ptrtoint ptr %24 to i64
  %74 = and i64 %73, 1
  %.not79 = icmp eq i64 %74, 0
  br i1 %.not79, label %75, label %lean_dec.exit56

75:                                               ; preds = %lean_dec.exit57
  %76 = load i32, ptr %24, align 4, !tbaa !8
  %77 = icmp sgt i32 %76, 1
  br i1 %77, label %78, label %80, !prof !11

78:                                               ; preds = %75
  %79 = add nsw i32 %76, -1
  store i32 %79, ptr %24, align 4, !tbaa !8
  br label %lean_dec.exit56

80:                                               ; preds = %75
  %.not.i64 = icmp eq i32 %76, 0
  br i1 %.not.i64, label %lean_dec.exit56, label %81

81:                                               ; preds = %80
  tail call void @lean_dec_ref_cold(ptr noundef nonnull %24) #6
  br label %lean_dec.exit56

lean_dec.exit56:                                  ; preds = %81, %80, %78, %lean_dec.exit57
  %82 = getelementptr i8, ptr %26, i64 8
  %.val = load i64, ptr %82, align 8, !tbaa !12
  %83 = ptrtoint ptr %26 to i64
  %84 = and i64 %83, 1
  %.not80 = icmp eq i64 %84, 0
  br i1 %.not80, label %85, label %lean_dec.exit55

85:                                               ; preds = %lean_dec.exit56
  %86 = load i32, ptr %26, align 4, !tbaa !8
  %87 = icmp sgt i32 %86, 1
  br i1 %87, label %88, label %90, !prof !11

88:                                               ; preds = %85
  %89 = add nsw i32 %86, -1
  store i32 %89, ptr %26, align 4, !tbaa !8
  br label %lean_dec.exit55

90:                                               ; preds = %85
  %.not.i66 = icmp eq i32 %86, 0
  br i1 %.not.i66, label %lean_dec.exit55, label %91

91:                                               ; preds = %90
  tail call void @lean_dec_ref_cold(ptr noundef nonnull %26) #6
  br label %lean_dec.exit55

lean_dec.exit55:                                  ; preds = %91, %90, %88, %lean_dec.exit56
  %92 = tail call ptr @l_Array_forIn_x27Unsafe_loop___at_Lean_Widget_goalToInteractive___spec__3(i8 noundef zeroext %41, i8 noundef zeroext %52, i8 noundef zeroext %63, ptr noundef %8, ptr noundef %10, ptr noundef %12, ptr noundef %14, ptr poison, ptr poison, ptr noundef %20, ptr noundef %22, i64 noundef %.val76, i64 noundef %.val, ptr noundef %28, ptr noundef %30, ptr noundef %32, ptr noundef %34, ptr noundef %36, ptr noundef %38)
  %93 = ptrtoint ptr %22 to i64
  %94 = and i64 %93, 1
  %.not81 = icmp eq i64 %94, 0
  br i1 %.not81, label %95, label %lean_dec.exit54

95:                                               ; preds = %lean_dec.exit55
  %96 = load i32, ptr %22, align 4, !tbaa !8
  %97 = icmp sgt i32 %96, 1
  br i1 %97, label %98, label %100, !prof !11

98:                                               ; preds = %95
  %99 = add nsw i32 %96, -1
  store i32 %99, ptr %22, align 4, !tbaa !8
  br label %lean_dec.exit54

100:                                              ; preds = %95
  %.not.i68 = icmp eq i32 %96, 0
  br i1 %.not.i68, label %lean_dec.exit54, label %101

101:                                              ; preds = %100
  tail call void @lean_dec_ref_cold(ptr noundef nonnull %22) #6
  br label %lean_dec.exit54

lean_dec.exit54:                                  ; preds = %101, %100, %98, %lean_dec.exit55
  %102 = ptrtoint ptr %18 to i64
  %103 = and i64 %102, 1
  %.not82 = icmp eq i64 %103, 0
  br i1 %.not82, label %104, label %lean_dec.exit53

104:                                              ; preds = %lean_dec.exit54
  %105 = load i32, ptr %18, align 4, !tbaa !8
  %106 = icmp sgt i32 %105, 1
  br i1 %106, label %107, label %109, !prof !11

107:                                              ; preds = %104
  %108 = add nsw i32 %105, -1
  store i32 %108, ptr %18, align 4, !tbaa !8
  br label %lean_dec.exit53

109:                                              ; preds = %104
  %.not.i70 = icmp eq i32 %105, 0
  br i1 %.not.i70, label %lean_dec.exit53, label %110

110:                                              ; preds = %109
  tail call void @lean_dec_ref_cold(ptr noundef nonnull %18) #6
  br label %lean_dec.exit53

lean_dec.exit53:                                  ; preds = %110, %109, %107, %lean_dec.exit54
  %111 = ptrtoint ptr %16 to i64
  %112 = and i64 %111, 1
  %.not83 = icmp eq i64 %112, 0
  br i1 %.not83, label %113, label %lean_dec.exit52

113:                                              ; preds = %lean_dec.exit53
  %114 = load i32, ptr %16, align 4, !tbaa !8
  %115 = icmp sgt i32 %114, 1
  br i1 %115, label %116, label %118, !prof !11

116:                                              ; preds = %113
  %117 = add nsw i32 %114, -1
  store i32 %117, ptr %16, align 4, !tbaa !8
  br label %lean_dec.exit52

118:                                              ; preds = %113
  %.not.i72 = icmp eq i32 %114, 0
  br i1 %.not.i72, label %lean_dec.exit52, label %119

119:                                              ; preds = %118
  tail call void @lean_dec_ref_cold(ptr noundef nonnull %16) #6
  br label %lean_dec.exit52

lean_dec.exit52:                                  ; preds = %119, %118, %116, %lean_dec.exit53
  %120 = ptrtoint ptr %14 to i64
  %121 = and i64 %120, 1
  %.not84 = icmp eq i64 %121, 0
  br i1 %.not84, label %122, label %lean_dec.exit

122:                                              ; preds = %lean_dec.exit52
  %123 = load i32, ptr %14, align 4, !tbaa !8
  %124 = icmp sgt i32 %123, 1
  br i1 %124, label %125, label %127, !prof !11

125:                                              ; preds = %122
  %126 = add nsw i32 %123, -1
  store i32 %126, ptr %14, align 4, !tbaa !8
  br label %lean_dec.exit

127:                                              ; preds = %122
  %.not.i74 = icmp eq i32 %123, 0
  br i1 %.not.i74, label %lean_dec.exit, label %128

128:                                              ; preds = %127
  tail call void @lean_dec_ref_cold(ptr noundef nonnull %14) #6
  br label %lean_dec.exit

lean_dec.exit:                                    ; preds = %128, %127, %125, %lean_dec.exit52
  ret ptr %92
}